; Function Attrs: mustprogress uwtable
define internal fastcc void @_ZN4toku8treenode17traverse_overlapsIZNS_L25extract_first_n_row_locksEPNS_15concurrent_tree15locked_keyrangeEPNS_16locktree_managerEPNS_8row_lockEiE14extract_fn_objEEvRKNS_8keyrangeEPT_(ptr noundef nonnull align 8 dereferenceable(202) %0, ptr noundef nonnull align 8 dereferenceable(81) %1, ptr noundef nonnull %2) unnamed_addr #0 align 2 {
  %4 = getelementptr inbounds nuw i8, ptr %0, i64 192
  %5 = load ptr, ptr %4, align 8, !tbaa !173
  %6 = getelementptr inbounds nuw i8, ptr %0, i64 48
  %7 = tail call noundef i32 @_ZNK4toku8keyrange7compareERKNS_10comparatorERKS0_(ptr noundef nonnull align 8 dereferenceable(81) %1, ptr noundef nonnull align 8 dereferenceable(17) %5, ptr noundef nonnull align 8 dereferenceable(81) %6)
  %8 = icmp eq i32 %7, 0
  br i1 %8, label %9, label %18

9:                                                ; preds = %3
  %10 = getelementptr inbounds nuw i8, ptr %0, i64 136
  %11 = load i64, ptr %10, align 8, !tbaa !176
  %12 = getelementptr inbounds nuw i8, ptr %0, i64 144
  %13 = load i8, ptr %12, align 8, !tbaa !177, !range !67, !noundef !68
  %14 = trunc nuw i8 %13 to i1
  %15 = getelementptr inbounds nuw i8, ptr %0, i64 152
  %16 = load ptr, ptr %15, align 8, !tbaa !178
  %17 = tail call fastcc noundef zeroext i1 @_ZZN4tokuL25extract_first_n_row_locksEPNS_15concurrent_tree15locked_keyrangeEPNS_16locktree_managerEPNS_8row_lockEiEN14extract_fn_obj2fnERKNS_8keyrangeEmbP11TxnidVector(ptr noundef nonnull align 8 dereferenceable(16) %2, ptr noundef nonnull align 8 dereferenceable(81) %6, i64 noundef %11, i1 noundef zeroext %14, ptr noundef %16)
  br label %44

18:                                               ; preds = %3
  %19 = getelementptr inbounds nuw i8, ptr %0, i64 160
  %20 = tail call noundef ptr @_ZN4toku8treenode9child_ptr10get_lockedEv(ptr noundef nonnull align 8 dereferenceable(16) %19)
  %.not = icmp eq ptr %20, null
  br i1 %.not, label %24, label %21

21:                                               ; preds = %18
  %.not22 = icmp eq i32 %7, 2
  br i1 %.not22, label %23, label %22

22:                                               ; preds = %21
  tail call fastcc void @_ZN4toku8treenode17traverse_overlapsIZNS_L25extract_first_n_row_locksEPNS_15concurrent_tree15locked_keyrangeEPNS_16locktree_managerEPNS_8row_lockEiE14extract_fn_objEEvRKNS_8keyrangeEPT_(ptr noundef nonnull align 8 dereferenceable(202) %20, ptr noundef nonnull align 8 dereferenceable(81) %1, ptr noundef %2)
  br label %23

23:                                               ; preds = %22, %21
  tail call void @_ZN4toku8treenode12mutex_unlockEv(ptr noundef nonnull align 8 dereferenceable(202) %20)
  br label %24

24:                                               ; preds = %23, %18
  %25 = icmp eq i32 %7, 3
  br i1 %25, label %26, label %35

26:                                               ; preds = %24
  %27 = getelementptr inbounds nuw i8, ptr %0, i64 136
  %28 = load i64, ptr %27, align 8, !tbaa !176
  %29 = getelementptr inbounds nuw i8, ptr %0, i64 144
  %30 = load i8, ptr %29, align 8, !tbaa !177, !range !67, !noundef !68
  %31 = trunc nuw i8 %30 to i1
  %32 = getelementptr inbounds nuw i8, ptr %0, i64 152
  %33 = load ptr, ptr %32, align 8, !tbaa !178
  %34 = tail call fastcc noundef zeroext i1 @_ZZN4tokuL25extract_first_n_row_locksEPNS_15concurrent_tree15locked_keyrangeEPNS_16locktree_managerEPNS_8row_lockEiEN14extract_fn_obj2fnERKNS_8keyrangeEmbP11TxnidVector(ptr noundef nonnull align 8 dereferenceable(16) %2, ptr noundef nonnull align 8 dereferenceable(81) %6, i64 noundef %28, i1 noundef zeroext %31, ptr noundef %33)
  br i1 %34, label %.thread, label %44

35:                                               ; preds = %24
  %36 = getelementptr inbounds nuw i8, ptr %0, i64 176
  %37 = tail call noundef ptr @_ZN4toku8treenode9child_ptr10get_lockedEv(ptr noundef nonnull align 8 dereferenceable(16) %36)
  %.not23 = icmp eq ptr %37, null
  br i1 %.not23, label %44, label %40

.thread:                                          ; preds = %26
  %38 = getelementptr inbounds nuw i8, ptr %0, i64 176
  %39 = tail call noundef ptr @_ZN4toku8treenode9child_ptr10get_lockedEv(ptr noundef nonnull align 8 dereferenceable(16) %38)
  %.not2325 = icmp eq ptr %39, null
  br i1 %.not2325, label %44, label %.thread26

40:                                               ; preds = %35
  %.not24 = icmp eq i32 %7, 1
  br i1 %.not24, label %42, label %.thread26

.thread26:                                        ; preds = %.thread, %40
  %41 = phi ptr [ %37, %40 ], [ %39, %.thread ]
  tail call fastcc void @_ZN4toku8treenode17traverse_overlapsIZNS_L25extract_first_n_row_locksEPNS_15concurrent_tree15locked_keyrangeEPNS_16locktree_managerEPNS_8row_lockEiE14extract_fn_objEEvRKNS_8keyrangeEPT_(ptr noundef nonnull align 8 dereferenceable(202) %41, ptr noundef nonnull align 8 dereferenceable(81) %1, ptr noundef %2)
  br label %42

42:                                               ; preds = %.thread26, %40
  %43 = phi ptr [ %41, %.thread26 ], [ %37, %40 ]
  tail call void @_ZN4toku8treenode12mutex_unlockEv(ptr noundef nonnull align 8 dereferenceable(202) %43)
  br label %44

44:                                               ; preds = %.thread, %26, %42, %35, %9
  ret void
}